; Function Attrs: mustprogress nounwind uwtable
define void @_ZN3gmx19DensityFittingForceD2Ev(ptr noundef nonnull align 8 captures(none) dereferenceable(8) %0) unnamed_addr #11 align 2 personality ptr @__gxx_personality_v0 {
  %2 = load ptr, ptr %0, align 8, !tbaa !52
  %.not.i = icmp eq ptr %2, null
  br i1 %.not.i, label %_ZNSt10unique_ptrIN3gmx19DensityFittingForce4ImplESt14default_deleteIS2_EED2Ev.exit, label %3

3:                                                ; preds = %1
  %4 = getelementptr inbounds nuw i8, ptr %2, i64 64
  %5 = load ptr, ptr %4, align 8, !tbaa !54
  %.not.i.i.i.i.i.i.i.i = icmp eq ptr %5, null
  br i1 %.not.i.i.i.i.i.i.i.i, label %_ZN3gmx21OuterProductEvaluatorD2Ev.exit.i.i.i.preheader, label %6

6:                                                ; preds = %3
  %7 = getelementptr inbounds nuw i8, ptr %2, i64 80
  %8 = load ptr, ptr %7, align 8, !tbaa !56
  %9 = ptrtoint ptr %8 to i64
  %10 = ptrtoint ptr %5 to i64
  %11 = sub i64 %9, %10
  tail call void @_ZdlPvm(ptr noundef nonnull %5, i64 noundef %11) #15
  br label %_ZN3gmx21OuterProductEvaluatorD2Ev.exit.i.i.i.preheader

_ZN3gmx21OuterProductEvaluatorD2Ev.exit.i.i.i.preheader: ; preds = %6, %3
  br label %_ZN3gmx21OuterProductEvaluatorD2Ev.exit.i.i.i

_ZN3gmx21OuterProductEvaluatorD2Ev.exit.i.i.i:    ; preds = %_ZN3gmx21OuterProductEvaluatorD2Ev.exit.i.i.i.preheader, %_ZN3gmx21OuterProductEvaluatorD2Ev.exit.i.i.i
  %.idx.i.i.i = phi i64 [ %.add.i.i.i, %_ZN3gmx21OuterProductEvaluatorD2Ev.exit.i.i.i ], [ 64, %_ZN3gmx21OuterProductEvaluatorD2Ev.exit.i.i.i.preheader ]
  %.add.i.i.i = add nsw i64 %.idx.i.i.i, -8
  %.ptr1.i.i.i = getelementptr inbounds i8, ptr %2, i64 %.add.i.i.i
  tail call void @_ZN3gmx19GaussianOn1DLatticeD1Ev(ptr noundef nonnull align 8 dereferenceable(8) %.ptr1.i.i.i) #13
  %12 = icmp eq i64 %.add.i.i.i, 40
  br i1 %12, label %_ZNKSt14default_deleteIN3gmx19DensityFittingForce4ImplEEclEPS2_.exit.i, label %_ZN3gmx21OuterProductEvaluatorD2Ev.exit.i.i.i

_ZNKSt14default_deleteIN3gmx19DensityFittingForce4ImplEEclEPS2_.exit.i: ; preds = %_ZN3gmx21OuterProductEvaluatorD2Ev.exit.i.i.i
  tail call void @_ZdlPvm(ptr noundef nonnull %2, i64 noundef 128) #15
  br label %_ZNSt10unique_ptrIN3gmx19DensityFittingForce4ImplESt14default_deleteIS2_EED2Ev.exit

_ZNSt10unique_ptrIN3gmx19DensityFittingForce4ImplESt14default_deleteIS2_EED2Ev.exit: ; preds = %1, %_ZNKSt14default_deleteIN3gmx19DensityFittingForce4ImplEEclEPS2_.exit.i
  store ptr null, ptr %0, align 8, !tbaa !52
  ret void
}